target datalayout = "e-m:e-p270:32:32-p271:32:32-p272:64:64-i64:64-i128:128-f80:128-n8:16:32:64-S128"
target triple = "x86_64-pc-linux-gnu"

%struct.Scl_Tree_t_ = type { ptr, ptr, i64, i32, i32, i32, ptr, ptr, i64, ptr }
%struct.timespec = type { i64, i64 }

@.str.14 = private unnamed_addr constant [5 x i8] c"%s =\00", align 1
@.str.16 = private unnamed_addr constant [11 x i8] c"%9.2f sec\0A\00", align 1
@.str.17 = private unnamed_addr constant [3 x i8] c"%s\00", align 1
@.str.18 = private unnamed_addr constant [18 x i8] c"Parsing failed.  \00", align 1
@.str.19 = private unnamed_addr constant [13 x i8] c"Parsing time\00", align 1
@.str.20 = private unnamed_addr constant [33 x i8] c"Parsing finished successfully.  \00", align 1

; Function Attrs: nounwind uwtable
define internal void @Abc_PrintTime(i32 noundef %0, ptr noundef %1, i64 noundef %2) #0 {
  %4 = alloca i32, align 4
  %5 = alloca ptr, align 8
  %6 = alloca i64, align 8
  store i32 %0, ptr %4, align 4
  store ptr %1, ptr %5, align 8
  store i64 %2, ptr %6, align 8
  %7 = load ptr, ptr %5, align 8
  call void (i32, ptr, ...) @Abc_Print(i32 noundef 1, ptr noundef @.str.14, ptr noundef %7)
  %8 = load i64, ptr %6, align 8
  %9 = sitofp i64 %8 to double
  %10 = fmul double 1.000000e+00, %9
  %11 = fdiv double %10, 1.000000e+06
  call void (i32, ptr, ...) @Abc_Print(i32 noundef 1, ptr noundef @.str.16, double noundef %11)
  ret void
}

; Function Attrs: nounwind uwtable
define internal i64 @Abc_Clock() #0 {
  %1 = alloca i64, align 8
  %2 = alloca %struct.timespec, align 8
  %3 = alloca i64, align 8
  %4 = call i32 @clock_gettime(i32 noundef 1, ptr noundef %2) #10
  %5 = icmp slt i32 %4, 0
  br i1 %5, label %6, label %7

6:                                                ; preds = %0
  store i64 -1, ptr %1, align 8
  br label %18

7:                                                ; preds = %0
  %8 = getelementptr inbounds %struct.timespec, ptr %2, i32 0, i32 0
  %9 = load i64, ptr %8, align 8
  %10 = mul nsw i64 %9, 1000000
  store i64 %10, ptr %3, align 8
  %11 = getelementptr inbounds %struct.timespec, ptr %2, i32 0, i32 1
  %12 = load i64, ptr %11, align 8
  %13 = mul nsw i64 %12, 1000000
  %14 = sdiv i64 %13, 1000000000
  %15 = load i64, ptr %3, align 8
  %16 = add nsw i64 %15, %14
  store i64 %16, ptr %3, align 8
  %17 = load i64, ptr %3, align 8
  store i64 %17, ptr %1, align 8
  br label %18

18:                                               ; preds = %7, %6
  %19 = load i64, ptr %1, align 8
  ret i64 %19
}

; Function Attrs: nounwind uwtable
define void @Scl_LibertyWipeOutComments(ptr noundef %0, ptr noundef %1) #0 {
  %3 = alloca ptr, align 8
  %4 = alloca ptr, align 8
  %5 = alloca ptr, align 8
  %6 = alloca ptr, align 8
  store ptr %0, ptr %3, align 8
  store ptr %1, ptr %4, align 8
  %7 = load ptr, ptr %3, align 8
  store ptr %7, ptr %5, align 8
  br label %8

8:                                                ; preds = %114, %2
  %9 = load ptr, ptr %5, align 8
  %10 = load ptr, ptr %4, align 8
  %11 = getelementptr inbounds i8, ptr %10, i64 -1
  %12 = icmp ult ptr %9, %11
  br i1 %12, label %13, label %117

13:                                               ; preds = %8
  %14 = load ptr, ptr %5, align 8
  %15 = getelementptr inbounds i8, ptr %14, i64 0
  %16 = load i8, ptr %15, align 1
  %17 = sext i8 %16 to i32
  %18 = icmp eq i32 %17, 47
  br i1 %18, label %19, label %67

19:                                               ; preds = %13
  %20 = load ptr, ptr %5, align 8
  %21 = getelementptr inbounds i8, ptr %20, i64 1
  %22 = load i8, ptr %21, align 1
  %23 = sext i8 %22 to i32
  %24 = icmp eq i32 %23, 42
  br i1 %24, label %25, label %67

25:                                               ; preds = %19
  %26 = load ptr, ptr %5, align 8
  store ptr %26, ptr %6, align 8
  br label %27

27:                                               ; preds = %63, %25
  %28 = load ptr, ptr %5, align 8
  %29 = load ptr, ptr %4, align 8
  %30 = getelementptr inbounds i8, ptr %29, i64 -1
  %31 = icmp ult ptr %28, %30
  br i1 %31, label %32, label %66

32:                                               ; preds = %27
  %33 = load ptr, ptr %5, align 8
  %34 = getelementptr inbounds i8, ptr %33, i64 0
  %35 = load i8, ptr %34, align 1
  %36 = sext i8 %35 to i32
  %37 = icmp eq i32 %36, 42
  br i1 %37, label %38, label %62

38:                                               ; preds = %32
  %39 = load ptr, ptr %5, align 8
  %40 = getelementptr inbounds i8, ptr %39, i64 1
  %41 = load i8, ptr %40, align 1
  %42 = sext i8 %41 to i32
  %43 = icmp eq i32 %42, 47
  br i1 %43, label %44, label %62

44:                                               ; preds = %38
  br label %45

45:                                               ; preds = %58, %44
  %46 = load ptr, ptr %6, align 8
  %47 = load ptr, ptr %5, align 8
  %48 = getelementptr inbounds i8, ptr %47, i64 2
  %49 = icmp ult ptr %46, %48
  br i1 %49, label %50, label %61

50:                                               ; preds = %45
  %51 = load ptr, ptr %6, align 8
  %52 = load i8, ptr %51, align 1
  %53 = sext i8 %52 to i32
  %54 = icmp ne i32 %53, 10
  br i1 %54, label %55, label %57

55:                                               ; preds = %50
  %56 = load ptr, ptr %6, align 8
  store i8 32, ptr %56, align 1
  br label %57

57:                                               ; preds = %55, %50
  br label %58

58:                                               ; preds = %57
  %59 = load ptr, ptr %6, align 8
  %60 = getelementptr inbounds i8, ptr %59, i32 1
  store ptr %60, ptr %6, align 8
  br label %45, !llvm.loop !8

61:                                               ; preds = %45
  br label %66

62:                                               ; preds = %38, %32
  br label %63

63:                                               ; preds = %62
  %64 = load ptr, ptr %5, align 8
  %65 = getelementptr inbounds i8, ptr %64, i32 1
  store ptr %65, ptr %5, align 8
  br label %27, !llvm.loop !9

66:                                               ; preds = %61, %27
  br label %113

67:                                               ; preds = %19, %13
  %68 = load ptr, ptr %5, align 8
  %69 = getelementptr inbounds i8, ptr %68, i64 0
  %70 = load i8, ptr %69, align 1
  %71 = sext i8 %70 to i32
  %72 = icmp eq i32 %71, 47
  br i1 %72, label %73, label %112

73:                                               ; preds = %67
  %74 = load ptr, ptr %5, align 8
  %75 = getelementptr inbounds i8, ptr %74, i64 1
  %76 = load i8, ptr %75, align 1
  %77 = sext i8 %76 to i32
  %78 = icmp eq i32 %77, 47
  br i1 %78, label %79, label %112

79:                                               ; preds = %73
  %80 = load ptr, ptr %5, align 8
  store ptr %80, ptr %6, align 8
  br label %81

81:                                               ; preds = %108, %79
  %82 = load ptr, ptr %5, align 8
  %83 = load ptr, ptr %4, align 8
  %84 = icmp ult ptr %82, %83
  br i1 %84, label %85, label %111

85:                                               ; preds = %81
  %86 = load ptr, ptr %5, align 8
  %87 = getelementptr inbounds i8, ptr %86, i64 0
  %88 = load i8, ptr %87, align 1
  %89 = sext i8 %88 to i32
  %90 = icmp eq i32 %89, 10
  br i1 %90, label %96, label %91

91:                                               ; preds = %85
  %92 = load ptr, ptr %5, align 8
  %93 = load ptr, ptr %4, align 8
  %94 = getelementptr inbounds i8, ptr %93, i64 -1
  %95 = icmp eq ptr %92, %94
  br i1 %95, label %96, label %107

96:                                               ; preds = %91, %85
  br label %97

97:                                               ; preds = %103, %96
  %98 = load ptr, ptr %6, align 8
  %99 = load ptr, ptr %5, align 8
  %100 = icmp ult ptr %98, %99
  br i1 %100, label %101, label %106

101:                                              ; preds = %97
  %102 = load ptr, ptr %6, align 8
  store i8 32, ptr %102, align 1
  br label %103

103:                                              ; preds = %101
  %104 = load ptr, ptr %6, align 8
  %105 = getelementptr inbounds i8, ptr %104, i32 1
  store ptr %105, ptr %6, align 8
  br label %97, !llvm.loop !10

106:                                              ; preds = %97
  br label %111

107:                                              ; preds = %91
  br label %108

108:                                              ; preds = %107
  %109 = load ptr, ptr %5, align 8
  %110 = getelementptr inbounds i8, ptr %109, i32 1
  store ptr %110, ptr %5, align 8
  br label %81, !llvm.loop !11

111:                                              ; preds = %106, %81
  br label %112

112:                                              ; preds = %111, %73, %67
  br label %113

113:                                              ; preds = %112, %66
  br label %114

114:                                              ; preds = %113
  %115 = load ptr, ptr %5, align 8
  %116 = getelementptr inbounds i8, ptr %115, i32 1
  store ptr %116, ptr %5, align 8
  br label %8, !llvm.loop !12

117:                                              ; preds = %8
  ret void
}

; Function Attrs: nounwind uwtable
define ptr @Scl_LibertyParse(ptr noundef %0, i32 noundef %1) #0 {
  %3 = alloca ptr, align 8
  %4 = alloca ptr, align 8
  %5 = alloca i32, align 4
  %6 = alloca ptr, align 8
  %7 = alloca ptr, align 8
  store ptr %0, ptr %4, align 8
  store i32 %1, ptr %5, align 4
  %8 = load ptr, ptr %4, align 8
  %9 = call ptr @Scl_LibertyStart(ptr noundef %8)
  store ptr %9, ptr %6, align 8
  %10 = icmp eq ptr %9, null
  br i1 %10, label %11, label %12

11:                                               ; preds = %2
  store ptr null, ptr %3, align 8
  br label %69

12:                                               ; preds = %2
  %13 = load ptr, ptr %6, align 8
  %14 = getelementptr inbounds %struct.Scl_Tree_t_, ptr %13, i32 0, i32 1
  %15 = load ptr, ptr %14, align 8
  store ptr %15, ptr %7, align 8
  %16 = load ptr, ptr %6, align 8
  %17 = getelementptr inbounds %struct.Scl_Tree_t_, ptr %16, i32 0, i32 1
  %18 = load ptr, ptr %17, align 8
  %19 = load ptr, ptr %6, align 8
  %20 = getelementptr inbounds %struct.Scl_Tree_t_, ptr %19, i32 0, i32 1
  %21 = load ptr, ptr %20, align 8
  %22 = load ptr, ptr %6, align 8
  %23 = getelementptr inbounds %struct.Scl_Tree_t_, ptr %22, i32 0, i32 2
  %24 = load i64, ptr %23, align 8
  %25 = getelementptr inbounds i8, ptr %21, i64 %24
  call void @Scl_LibertyWipeOutComments(ptr noundef %18, ptr noundef %25)
  %26 = load ptr, ptr %6, align 8
  %27 = load ptr, ptr %6, align 8
  %28 = getelementptr inbounds %struct.Scl_Tree_t_, ptr %27, i32 0, i32 1
  %29 = load ptr, ptr %28, align 8
  %30 = load ptr, ptr %6, align 8
  %31 = getelementptr inbounds %struct.Scl_Tree_t_, ptr %30, i32 0, i32 2
  %32 = load i64, ptr %31, align 8
  %33 = getelementptr inbounds i8, ptr %29, i64 %32
  %34 = call i32 @Scl_LibertyBuildItem(ptr noundef %26, ptr noundef %7, ptr noundef %33)
  %35 = icmp ne i32 %34, 0
  %36 = xor i1 %35, true
  %37 = zext i1 %36 to i32
  %38 = icmp eq i32 %37, 0
  br i1 %38, label %39, label %56

39:                                               ; preds = %12
  %40 = load ptr, ptr %6, align 8
  %41 = getelementptr inbounds %struct.Scl_Tree_t_, ptr %40, i32 0, i32 7
  %42 = load ptr, ptr %41, align 8
  %43 = icmp ne ptr %42, null
  br i1 %43, label %44, label %49

44:                                               ; preds = %39
  %45 = load ptr, ptr %6, align 8
  %46 = getelementptr inbounds %struct.Scl_Tree_t_, ptr %45, i32 0, i32 7
  %47 = load ptr, ptr %46, align 8
  %48 = call i32 (ptr, ...) @printf(ptr noundef @.str.17, ptr noundef %47)
  br label %49

49:                                               ; preds = %44, %39
  %50 = call i32 (ptr, ...) @printf(ptr noundef @.str.18)
  %51 = call i64 @Abc_Clock()
  %52 = load ptr, ptr %6, align 8
  %53 = getelementptr inbounds %struct.Scl_Tree_t_, ptr %52, i32 0, i32 8
  %54 = load i64, ptr %53, align 8
  %55 = sub nsw i64 %51, %54
  call void @Abc_PrintTime(i32 noundef 1, ptr noundef @.str.19, i64 noundef %55)
  br label %67

56:                                               ; preds = %12
  %57 = load i32, ptr %5, align 4
  %58 = icmp ne i32 %57, 0
  br i1 %58, label %59, label %66

59:                                               ; preds = %56
  %60 = call i32 (ptr, ...) @printf(ptr noundef @.str.20)
  %61 = call i64 @Abc_Clock()
  %62 = load ptr, ptr %6, align 8
  %63 = getelementptr inbounds %struct.Scl_Tree_t_, ptr %62, i32 0, i32 8
  %64 = load i64, ptr %63, align 8
  %65 = sub nsw i64 %61, %64
  call void @Abc_PrintTime(i32 noundef 1, ptr noundef @.str.19, i64 noundef %65)
  br label %66

66:                                               ; preds = %59, %56
  br label %67

67:                                               ; preds = %66, %49
  %68 = load ptr, ptr %6, align 8
  store ptr %68, ptr %3, align 8
  br label %69

69:                                               ; preds = %67, %11
  %70 = load ptr, ptr %3, align 8
  ret ptr %70
}